target datalayout = "e-m:e-p270:32:32-p271:32:32-p272:64:64-i64:64-i128:128-f80:128-n8:16:32:64-S128"
target triple = "x86_64-pc-linux-gnu"

%struct.luaL_Strbuf = type { ptr, ptr, ptr, ptr, [512 x i8] }

; Function Attrs: mustprogress uwtable
define internal noundef i32 @_ZL11str_reverseP9lua_State(ptr noundef %0) #2 {
  %2 = alloca ptr, align 8
  %3 = alloca i64, align 8
  %4 = alloca ptr, align 8
  %5 = alloca %struct.luaL_Strbuf, align 8
  %6 = alloca ptr, align 8
  store ptr %0, ptr %2, align 8, !tbaa !20
  call void @llvm.lifetime.start.p0(i64 8, ptr %3) #13
  call void @llvm.lifetime.start.p0(i64 8, ptr %4) #13
  %7 = load ptr, ptr %2, align 8, !tbaa !20
  %8 = call noundef ptr @_Z17luaL_checklstringP9lua_StateiPm(ptr noundef %7, i32 noundef 1, ptr noundef %3)
  store ptr %8, ptr %4, align 8, !tbaa !9
  call void @llvm.lifetime.start.p0(i64 544, ptr %5) #13
  call void @llvm.lifetime.start.p0(i64 8, ptr %6) #13
  %9 = load ptr, ptr %2, align 8, !tbaa !20
  %10 = load i64, ptr %3, align 8, !tbaa !22
  %11 = call noundef ptr @_Z17luaL_buffinitsizeP9lua_StateP11luaL_Strbufm(ptr noundef %9, ptr noundef %5, i64 noundef %10)
  store ptr %11, ptr %6, align 8, !tbaa !9
  br label %12

12:                                               ; preds = %16, %1
  %13 = load i64, ptr %3, align 8, !tbaa !22
  %14 = add i64 %13, -1
  store i64 %14, ptr %3, align 8, !tbaa !22
  %15 = icmp ne i64 %13, 0
  br i1 %15, label %16, label %23

16:                                               ; preds = %12
  %17 = load ptr, ptr %4, align 8, !tbaa !9
  %18 = load i64, ptr %3, align 8, !tbaa !22
  %19 = getelementptr inbounds nuw i8, ptr %17, i64 %18
  %20 = load i8, ptr %19, align 1, !tbaa !26
  %21 = load ptr, ptr %6, align 8, !tbaa !9
  %22 = getelementptr inbounds nuw i8, ptr %21, i32 1
  store ptr %22, ptr %6, align 8, !tbaa !9
  store i8 %20, ptr %21, align 1, !tbaa !26
  br label %12, !llvm.loop !44

23:                                               ; preds = %12
  %24 = load ptr, ptr %6, align 8, !tbaa !9
  %25 = getelementptr inbounds nuw %struct.luaL_Strbuf, ptr %5, i32 0, i32 0
  %26 = load ptr, ptr %25, align 8, !tbaa !30
  %27 = ptrtoint ptr %24 to i64
  %28 = ptrtoint ptr %26 to i64
  %29 = sub i64 %27, %28
  call void @_Z19luaL_pushresultsizeP11luaL_Strbufm(ptr noundef %5, i64 noundef %29)
  call void @llvm.lifetime.end.p0(i64 8, ptr %6) #13
  call void @llvm.lifetime.end.p0(i64 544, ptr %5) #13
  call void @llvm.lifetime.end.p0(i64 8, ptr %4) #13
  call void @llvm.lifetime.end.p0(i64 8, ptr %3) #13
  ret i32 1
}