; Function Attrs: mustprogress uwtable
define internal noundef i32 @_ZL11str_reverseP9lua_State(ptr noundef %0) #0 {
  %2 = alloca i64, align 8
  %3 = alloca %struct.luaL_Strbuf, align 8
  call void @llvm.lifetime.start.p0(i64 8, ptr nonnull %2) #14
  %4 = call noundef ptr @_Z17luaL_checklstringP9lua_StateiPm(ptr noundef %0, i32 noundef 1, ptr noundef nonnull %2)
  call void @llvm.lifetime.start.p0(i64 544, ptr nonnull %3) #14
  %5 = load i64, ptr %2, align 8, !tbaa !4
  %6 = call noundef ptr @_Z17luaL_buffinitsizeP9lua_StateP11luaL_Strbufm(ptr noundef %0, ptr noundef nonnull %3, i64 noundef %5)
  %7 = load i64, ptr %2, align 8, !tbaa !4
  %8 = add i64 %7, -1
  store i64 %8, ptr %2, align 8, !tbaa !4
  %.not5 = icmp eq i64 %7, 0
  br i1 %.not5, label %._crit_edge, label %.lr.ph

.lr.ph:                                           ; preds = %1, %.lr.ph
  %9 = phi i64 [ %14, %.lr.ph ], [ %8, %1 ]
  %.06 = phi ptr [ %12, %.lr.ph ], [ %6, %1 ]
  %10 = getelementptr inbounds nuw i8, ptr %4, i64 %9
  %11 = load i8, ptr %10, align 1, !tbaa !8
  %12 = getelementptr inbounds nuw i8, ptr %.06, i64 1
  store i8 %11, ptr %.06, align 1, !tbaa !8
  %13 = load i64, ptr %2, align 8, !tbaa !4
  %14 = add i64 %13, -1
  store i64 %14, ptr %2, align 8, !tbaa !4
  %.not = icmp eq i64 %13, 0
  br i1 %.not, label %._crit_edge, label %.lr.ph, !llvm.loop !46

._crit_edge:                                      ; preds = %.lr.ph, %1
  %.0.lcssa = phi ptr [ %6, %1 ], [ %12, %.lr.ph ]
  %15 = load ptr, ptr %3, align 8, !tbaa !12
  %16 = ptrtoint ptr %.0.lcssa to i64
  %17 = ptrtoint ptr %15 to i64
  %18 = sub i64 %16, %17
  call void @_Z19luaL_pushresultsizeP11luaL_Strbufm(ptr noundef nonnull %3, i64 noundef %18)
  call void @llvm.lifetime.end.p0(i64 544, ptr nonnull %3) #14
  call void @llvm.lifetime.end.p0(i64 8, ptr nonnull %2) #14
  ret i32 1
}